; Function Attrs: mustprogress uwtable
define dso_local noundef i32 @_ZN4Luau10Normalizer11isInhabitedEPKNS_14NormalizedTypeE(ptr noundef nonnull align 8 dereferenceable(337) %0, ptr noundef %1) local_unnamed_addr #4 align 2 personality ptr @__gxx_personality_v0 {
  %3 = alloca %"class.Luau::Set", align 8
  call void @llvm.lifetime.start.p0(i64 48, ptr nonnull %3) #32
  %4 = getelementptr inbounds nuw i8, ptr %3, i64 40
  store i64 0, ptr %4, align 8, !tbaa !152
  call void @llvm.memset.p0.i64(ptr noundef nonnull align 8 dereferenceable(32) %3, i8 0, i64 32, i1 false)
  %5 = invoke noundef i32 @_ZN4Luau10Normalizer11isInhabitedEPKNS_14NormalizedTypeERNS_3SetIPKNS_4TypeENS_16DenseHashPointerEEE(ptr noundef nonnull align 8 dereferenceable(337) %0, ptr noundef %1, ptr noundef nonnull align 8 dereferenceable(48) %3)
          to label %6 unwind label %9

6:                                                ; preds = %2
  %7 = load ptr, ptr %3, align 8, !tbaa !26
  %.not.i.i.i = icmp eq ptr %7, null
  br i1 %.not.i.i.i, label %_ZN4Luau3SetIPKNS_4TypeENS_16DenseHashPointerEED2Ev.exit, label %8

8:                                                ; preds = %6
  call void @_ZdlPv(ptr noundef nonnull %7) #32
  br label %_ZN4Luau3SetIPKNS_4TypeENS_16DenseHashPointerEED2Ev.exit

_ZN4Luau3SetIPKNS_4TypeENS_16DenseHashPointerEED2Ev.exit: ; preds = %6, %8
  call void @llvm.lifetime.end.p0(i64 48, ptr nonnull %3) #32
  ret i32 %5

9:                                                ; preds = %2
  %10 = landingpad { ptr, i32 }
          cleanup
  %11 = load ptr, ptr %3, align 8, !tbaa !26
  %.not.i.i.i3 = icmp eq ptr %11, null
  br i1 %.not.i.i.i3, label %_ZN4Luau3SetIPKNS_4TypeENS_16DenseHashPointerEED2Ev.exit4, label %12

12:                                               ; preds = %9
  call void @_ZdlPv(ptr noundef nonnull %11) #32
  br label %_ZN4Luau3SetIPKNS_4TypeENS_16DenseHashPointerEED2Ev.exit4

_ZN4Luau3SetIPKNS_4TypeENS_16DenseHashPointerEED2Ev.exit4: ; preds = %9, %12
  call void @llvm.lifetime.end.p0(i64 48, ptr nonnull %3) #32
  resume { ptr, i32 } %10
}